; Function Attrs: mustprogress uwtable
define internal fastcc noundef float @_ZL9calc_tempPK10gmx_mtop_tPK10t_inputrecPA3_f(ptr noundef nonnull %0, ptr nocapture noundef readonly %1, ptr nocapture noundef readonly %2) unnamed_addr #1 {
  %4 = alloca %class.AtomIterator, align 8
  %5 = alloca %class.AtomIterator, align 8
  %6 = alloca %class.AtomRange, align 8
  %7 = alloca %class.AtomIterator, align 8
  %8 = alloca %class.AtomIterator, align 8
  %9 = alloca %class.AtomProxy, align 8
  call void @_ZN12AtomIteratorC1ERK10gmx_mtop_ti(ptr noundef nonnull align 8 dereferenceable(40) %6, ptr noundef nonnull align 8 dereferenceable(768) %0, i32 noundef 0)
  %10 = getelementptr inbounds i8, ptr %6, i64 40
  %11 = getelementptr inbounds i8, ptr %0, i64 176
  %12 = load i32, ptr %11, align 8
  call void @_ZN12AtomIteratorC1ERK10gmx_mtop_ti(ptr noundef nonnull align 8 dereferenceable(40) %10, ptr noundef nonnull align 8 dereferenceable(768) %0, i32 noundef %12)
  call void @llvm.memcpy.p0.p0.i64(ptr noundef nonnull align 8 dereferenceable(40) %7, ptr noundef nonnull align 8 dereferenceable(40) %6, i64 40, i1 false)
  call void @llvm.memcpy.p0.p0.i64(ptr noundef nonnull align 8 dereferenceable(40) %8, ptr noundef nonnull align 8 dereferenceable(40) %10, i64 40, i1 false)
  call void @llvm.lifetime.start.p0(i64 40, ptr nonnull %5)
  call void @llvm.memcpy.p0.p0.i64(ptr noundef nonnull align 8 dereferenceable(40) %5, ptr noundef nonnull align 8 dereferenceable(40) %7, i64 40, i1 false)
  call void @llvm.lifetime.start.p0(i64 40, ptr nonnull %4)
  call void @llvm.memcpy.p0.p0.i64(ptr noundef nonnull align 8 dereferenceable(40) %4, ptr noundef nonnull align 8 dereferenceable(40) %8, i64 40, i1 false)
  %13 = call noundef zeroext i1 @_ZNK12AtomIteratoreqERKS_(ptr noundef nonnull align 8 dereferenceable(40) %5, ptr noundef nonnull align 8 dereferenceable(40) %4)
  call void @llvm.lifetime.end.p0(i64 40, ptr nonnull %5)
  call void @llvm.lifetime.end.p0(i64 40, ptr nonnull %4)
  br i1 %13, label %.preheader, label %.lr.ph21

.preheader:                                       ; preds = %.lr.ph21, %3
  %.015.lcssa = phi double [ 0.000000e+00, %3 ], [ %34, %.lr.ph21 ]
  %14 = getelementptr inbounds i8, ptr %1, i64 720
  %15 = load i32, ptr %14, align 8
  %16 = icmp sgt i32 %15, 0
  br i1 %16, label %.lr.ph, label %._crit_edge

.lr.ph:                                           ; preds = %.preheader
  %17 = getelementptr inbounds i8, ptr %1, i64 744
  %18 = load ptr, ptr %17, align 8
  %wide.trip.count = zext nneg i32 %15 to i64
  br label %37

.lr.ph21:                                         ; preds = %3, %.lr.ph21
  %.01519 = phi double [ %34, %.lr.ph21 ], [ 0.000000e+00, %3 ]
  store ptr %7, ptr %9, align 8
  %19 = call noundef nonnull align 4 dereferenceable(36) ptr @_ZNK9AtomProxy4atomEv(ptr noundef nonnull align 8 dereferenceable(8) %9)
  %20 = call noundef i32 @_ZNK9AtomProxy16globalAtomNumberEv(ptr noundef nonnull align 8 dereferenceable(8) %9)
  %21 = load float, ptr %19, align 4
  %22 = sext i32 %20 to i64
  %23 = getelementptr inbounds [3 x float], ptr %2, i64 %22
  %24 = load float, ptr %23, align 4
  %25 = getelementptr inbounds i8, ptr %23, i64 4
  %26 = load float, ptr %25, align 4
  %27 = fmul float %26, %26
  %28 = call float @llvm.fmuladd.f32(float %24, float %24, float %27)
  %29 = getelementptr inbounds i8, ptr %23, i64 8
  %30 = load float, ptr %29, align 4
  %31 = call noundef float @llvm.fmuladd.f32(float %30, float %30, float %28)
  %32 = fmul float %21, %31
  %33 = fpext float %32 to double
  %34 = fadd double %.01519, %33
  %35 = call noundef nonnull align 8 dereferenceable(40) ptr @_ZN12AtomIteratorppEv(ptr noundef nonnull align 8 dereferenceable(40) %7)
  call void @llvm.lifetime.start.p0(i64 40, ptr nonnull %5)
  call void @llvm.memcpy.p0.p0.i64(ptr noundef nonnull align 8 dereferenceable(40) %5, ptr noundef nonnull align 8 dereferenceable(40) %7, i64 40, i1 false)
  call void @llvm.lifetime.start.p0(i64 40, ptr nonnull %4)
  call void @llvm.memcpy.p0.p0.i64(ptr noundef nonnull align 8 dereferenceable(40) %4, ptr noundef nonnull align 8 dereferenceable(40) %8, i64 40, i1 false)
  %36 = call noundef zeroext i1 @_ZNK12AtomIteratoreqERKS_(ptr noundef nonnull align 8 dereferenceable(40) %5, ptr noundef nonnull align 8 dereferenceable(40) %4)
  call void @llvm.lifetime.end.p0(i64 40, ptr nonnull %5)
  call void @llvm.lifetime.end.p0(i64 40, ptr nonnull %4)
  br i1 %36, label %.preheader, label %.lr.ph21

37:                                               ; preds = %.lr.ph, %37
  %indvars.iv = phi i64 [ 0, %.lr.ph ], [ %indvars.iv.next, %37 ]
  %.01416 = phi double [ 0.000000e+00, %.lr.ph ], [ %41, %37 ]
  %38 = getelementptr inbounds float, ptr %18, i64 %indvars.iv
  %39 = load float, ptr %38, align 4
  %40 = fpext float %39 to double
  %41 = fadd double %.01416, %40
  %indvars.iv.next = add nuw nsw i64 %indvars.iv, 1
  %exitcond.not = icmp eq i64 %indvars.iv.next, %wide.trip.count
  br i1 %exitcond.not, label %._crit_edge.loopexit, label %37, !llvm.loop !74

._crit_edge.loopexit:                             ; preds = %37
  %42 = fmul double %41, 0x3F81072C483AF26D
  br label %._crit_edge

._crit_edge:                                      ; preds = %._crit_edge.loopexit, %.preheader
  %.014.lcssa = phi double [ 0.000000e+00, %.preheader ], [ %42, %._crit_edge.loopexit ]
  %43 = fdiv double %.015.lcssa, %.014.lcssa
  %44 = fptrunc double %43 to float
  ret float %44
}